; Function Attrs: mustprogress uwtable
define void @_ZN7testing8internal11CmpHelperGTEPKcS2_xx(ptr noalias sret(%"class.testing::AssertionResult") align 8 %agg.result, ptr noundef %expr1, ptr noundef %expr2, i64 noundef %val1, i64 noundef %val2) local_unnamed_addr #3 personality ptr @__gxx_personality_v0 {
entry:
  %expr1.addr = alloca ptr, align 8
  %expr2.addr = alloca ptr, align 8
  %val1.addr = alloca i64, align 8
  %val2.addr = alloca i64, align 8
  %ref.tmp = alloca %"class.testing::AssertionResult", align 8
  %ref.tmp9 = alloca %"class.std::__cxx11::basic_string", align 8
  %ref.tmp16 = alloca %"class.std::__cxx11::basic_string", align 8
  store ptr %expr1, ptr %expr1.addr, align 8
  store ptr %expr2, ptr %expr2.addr, align 8
  store i64 %val1, ptr %val1.addr, align 8
  store i64 %val2, ptr %val2.addr, align 8
  %cmp = icmp sgt i64 %val1, %val2
  br i1 %cmp, label %if.then, label %if.else

if.then:                                          ; preds = %entry
  store i8 1, ptr %agg.result, align 8, !alias.scope !124
  %message_.i.i = getelementptr inbounds i8, ptr %agg.result, i64 8
  store ptr null, ptr %message_.i.i, align 8, !alias.scope !124
  br label %return

if.else:                                          ; preds = %entry
  store i8 0, ptr %ref.tmp, align 8, !alias.scope !127
  %message_.i.i3 = getelementptr inbounds i8, ptr %ref.tmp, i64 8
  store ptr null, ptr %message_.i.i3, align 8, !alias.scope !127
  %call = invoke noundef nonnull align 8 dereferenceable(16) ptr @_ZN7testing15AssertionResultlsIA12_cEERS0_RKT_(ptr noundef nonnull align 8 dereferenceable(16) %ref.tmp, ptr noundef nonnull align 1 dereferenceable(12) @.str.71)
          to label %invoke.cont unwind label %lpad

invoke.cont:                                      ; preds = %if.else
  %call2 = invoke noundef nonnull align 8 dereferenceable(16) ptr @_ZN7testing15AssertionResultlsIPKcEERS0_RKT_(ptr noundef nonnull align 8 dereferenceable(16) %call, ptr noundef nonnull align 8 dereferenceable(8) %expr1.addr)
          to label %invoke.cont1 unwind label %lpad

invoke.cont1:                                     ; preds = %invoke.cont
  %call4 = invoke noundef nonnull align 8 dereferenceable(16) ptr @_ZN7testing15AssertionResultlsIA6_cEERS0_RKT_(ptr noundef nonnull align 8 dereferenceable(16) %call2, ptr noundef nonnull align 1 dereferenceable(6) @.str.78)
          to label %invoke.cont3 unwind label %lpad

invoke.cont3:                                     ; preds = %invoke.cont1
  %call6 = invoke noundef nonnull align 8 dereferenceable(16) ptr @_ZN7testing15AssertionResultlsIPKcEERS0_RKT_(ptr noundef nonnull align 8 dereferenceable(16) %call4, ptr noundef nonnull align 8 dereferenceable(8) %expr2.addr)
          to label %invoke.cont5 unwind label %lpad

invoke.cont5:                                     ; preds = %invoke.cont3
  %call8 = invoke noundef nonnull align 8 dereferenceable(16) ptr @_ZN7testing15AssertionResultlsIA12_cEERS0_RKT_(ptr noundef nonnull align 8 dereferenceable(16) %call6, ptr noundef nonnull align 1 dereferenceable(12) @.str.73)
          to label %invoke.cont7 unwind label %lpad

invoke.cont7:                                     ; preds = %invoke.cont5
  invoke void @_ZN7testing13PrintToStringIxEENSt7__cxx1112basic_stringIcSt11char_traitsIcESaIcEEERKT_(ptr nonnull sret(%"class.std::__cxx11::basic_string") align 8 %ref.tmp9, ptr noundef nonnull align 8 dereferenceable(8) %val1.addr)
          to label %invoke.cont10 unwind label %lpad

invoke.cont10:                                    ; preds = %invoke.cont7
  %call13 = invoke noundef nonnull align 8 dereferenceable(16) ptr @_ZN7testing15AssertionResultlsINSt7__cxx1112basic_stringIcSt11char_traitsIcESaIcEEEEERS0_RKT_(ptr noundef nonnull align 8 dereferenceable(16) %call8, ptr noundef nonnull align 8 dereferenceable(32) %ref.tmp9)
          to label %invoke.cont12 unwind label %lpad11

invoke.cont12:                                    ; preds = %invoke.cont10
  %call15 = invoke noundef nonnull align 8 dereferenceable(16) ptr @_ZN7testing15AssertionResultlsIA5_cEERS0_RKT_(ptr noundef nonnull align 8 dereferenceable(16) %call13, ptr noundef nonnull align 1 dereferenceable(5) @.str.74)
          to label %invoke.cont14 unwind label %lpad11

invoke.cont14:                                    ; preds = %invoke.cont12
  invoke void @_ZN7testing13PrintToStringIxEENSt7__cxx1112basic_stringIcSt11char_traitsIcESaIcEEERKT_(ptr nonnull sret(%"class.std::__cxx11::basic_string") align 8 %ref.tmp16, ptr noundef nonnull align 8 dereferenceable(8) %val2.addr)
          to label %invoke.cont17 unwind label %lpad11

invoke.cont17:                                    ; preds = %invoke.cont14
  %call20 = invoke noundef nonnull align 8 dereferenceable(16) ptr @_ZN7testing15AssertionResultlsINSt7__cxx1112basic_stringIcSt11char_traitsIcESaIcEEEEERS0_RKT_(ptr noundef nonnull align 8 dereferenceable(16) %call15, ptr noundef nonnull align 8 dereferenceable(32) %ref.tmp16)
          to label %invoke.cont19 unwind label %lpad18

invoke.cont19:                                    ; preds = %invoke.cont17
  invoke void @_ZN7testing15AssertionResultC1ERKS0_(ptr noundef nonnull align 8 dereferenceable(16) %agg.result, ptr noundef nonnull align 8 dereferenceable(16) %call20)
          to label %invoke.cont21 unwind label %lpad18

invoke.cont21:                                    ; preds = %invoke.cont19
  call void @_ZNSt7__cxx1112basic_stringIcSt11char_traitsIcESaIcEED1Ev(ptr noundef nonnull align 8 dereferenceable(32) %ref.tmp16) #47
  call void @_ZNSt7__cxx1112basic_stringIcSt11char_traitsIcESaIcEED1Ev(ptr noundef nonnull align 8 dereferenceable(32) %ref.tmp9) #47
  %0 = load ptr, ptr %message_.i.i3, align 8
  %cmp.not.i.i.i = icmp eq ptr %0, null
  br i1 %cmp.not.i.i.i, label %return, label %if.end.i.i.i

if.end.i.i.i:                                     ; preds = %invoke.cont21
  call void @_ZNSt7__cxx1112basic_stringIcSt11char_traitsIcESaIcEED1Ev(ptr noundef nonnull align 8 dereferenceable(32) %0) #47
  call void @_ZdlPv(ptr noundef nonnull %0) #51
  br label %return

lpad:                                             ; preds = %invoke.cont7, %invoke.cont5, %invoke.cont3, %invoke.cont1, %invoke.cont, %if.else
  %1 = landingpad { ptr, i32 }
          cleanup
  br label %ehcleanup22

lpad11:                                           ; preds = %invoke.cont14, %invoke.cont12, %invoke.cont10
  %2 = landingpad { ptr, i32 }
          cleanup
  br label %ehcleanup

lpad18:                                           ; preds = %invoke.cont19, %invoke.cont17
  %3 = landingpad { ptr, i32 }
          cleanup
  call void @_ZNSt7__cxx1112basic_stringIcSt11char_traitsIcESaIcEED1Ev(ptr noundef nonnull align 8 dereferenceable(32) %ref.tmp16) #47
  br label %ehcleanup

ehcleanup:                                        ; preds = %lpad18, %lpad11
  %.pn = phi { ptr, i32 } [ %3, %lpad18 ], [ %2, %lpad11 ]
  call void @_ZNSt7__cxx1112basic_stringIcSt11char_traitsIcESaIcEED1Ev(ptr noundef nonnull align 8 dereferenceable(32) %ref.tmp9) #47
  br label %ehcleanup22

ehcleanup22:                                      ; preds = %ehcleanup, %lpad
  %.pn.pn = phi { ptr, i32 } [ %.pn, %ehcleanup ], [ %1, %lpad ]
  call void @_ZN7testing15AssertionResultD2Ev(ptr noundef nonnull align 8 dereferenceable(16) %ref.tmp) #47
  resume { ptr, i32 } %.pn.pn

return:                                           ; preds = %if.end.i.i.i, %invoke.cont21, %if.then
  ret void
}